; Function Attrs: nounwind uwtable
define noundef ptr @Ivy_FraigCollectSuper(ptr noundef %0, i32 noundef %1) local_unnamed_addr #2 {
  %3 = tail call noalias dereferenceable_or_null(16) ptr @malloc(i64 noundef 16) #27
  %4 = getelementptr inbounds nuw i8, ptr %3, i64 4
  store i32 0, ptr %4, align 4, !tbaa !47
  store i32 8, ptr %3, align 8, !tbaa !87
  %5 = tail call noalias dereferenceable_or_null(64) ptr @malloc(i64 noundef 64) #27
  %6 = getelementptr inbounds nuw i8, ptr %3, i64 8
  store ptr %5, ptr %6, align 8, !tbaa !49
  tail call void @Ivy_FraigCollectSuper_rec(ptr noundef %0, ptr noundef nonnull %3, i32 noundef 1, i32 noundef %1)
  ret ptr %3
}